; Function Attrs: nounwind uwtable
define internal void @pmix_mca_base_var_group_constructor(ptr noundef initializes((144, 496)) %0) #0 {
  %2 = getelementptr inbounds nuw i8, ptr %0, i64 144
  tail call void @llvm.memset.p0.i64(ptr noundef nonnull align 1 dereferenceable(352) %2, i8 0, i64 352, i1 false)
  %3 = load i32, ptr @pmix_class_init_epoch, align 4, !tbaa !3
  %4 = load i32, ptr getelementptr inbounds nuw (i8, ptr @pmix_value_array_t_class, i64 32), align 8, !tbaa !7
  %.not = icmp eq i32 %3, %4
  br i1 %.not, label %6, label %5

5:                                                ; preds = %1
  tail call void @pmix_class_initialize(ptr noundef nonnull @pmix_value_array_t_class) #17
  br label %6

6:                                                ; preds = %5, %1
  %7 = getelementptr inbounds nuw i8, ptr %0, i64 192
  %8 = getelementptr inbounds nuw i8, ptr %0, i64 232
  store ptr @pmix_value_array_t_class, ptr %8, align 8, !tbaa !13
  %9 = getelementptr inbounds nuw i8, ptr %0, i64 240
  store i32 1, ptr %9, align 8, !tbaa !16
  %10 = getelementptr inbounds nuw i8, ptr %0, i64 248
  tail call void @llvm.memset.p0.i64(ptr noundef nonnull align 8 dereferenceable(64) %10, i8 0, i64 64, i1 false)
  %11 = load ptr, ptr getelementptr inbounds nuw (i8, ptr @pmix_value_array_t_class, i64 40), align 8, !tbaa !17
  %12 = load ptr, ptr %11, align 8, !tbaa !18
  %.not6.i = icmp eq ptr %12, null
  br i1 %.not6.i, label %pmix_obj_run_constructors.exit, label %.lr.ph.i

.lr.ph.i:                                         ; preds = %6, %.lr.ph.i
  %13 = phi ptr [ %15, %.lr.ph.i ], [ %12, %6 ]
  %.07.i = phi ptr [ %14, %.lr.ph.i ], [ %11, %6 ]
  tail call void %13(ptr noundef nonnull %7) #17
  %14 = getelementptr inbounds nuw i8, ptr %.07.i, i64 8
  %15 = load ptr, ptr %14, align 8, !tbaa !18
  %.not.i = icmp eq ptr %15, null
  br i1 %.not.i, label %pmix_obj_run_constructors.exit, label %.lr.ph.i, !llvm.loop !19

pmix_obj_run_constructors.exit:                   ; preds = %.lr.ph.i, %6
  %16 = getelementptr inbounds nuw i8, ptr %0, i64 320
  store i64 4, ptr %16, align 8, !tbaa !21
  %17 = getelementptr inbounds nuw i8, ptr %0, i64 336
  store i64 1, ptr %17, align 8, !tbaa !23
  %18 = getelementptr inbounds nuw i8, ptr %0, i64 328
  store i64 0, ptr %18, align 8, !tbaa !24
  %19 = getelementptr inbounds nuw i8, ptr %0, i64 312
  %20 = load ptr, ptr %19, align 8, !tbaa !25
  %21 = tail call dereferenceable_or_null(4) ptr @realloc(ptr noundef %20, i64 noundef 4) #18
  store ptr %21, ptr %19, align 8, !tbaa !25
  %22 = load i32, ptr @pmix_class_init_epoch, align 4, !tbaa !3
  %23 = load i32, ptr getelementptr inbounds nuw (i8, ptr @pmix_value_array_t_class, i64 32), align 8, !tbaa !7
  %.not11 = icmp eq i32 %22, %23
  br i1 %.not11, label %25, label %24

24:                                               ; preds = %pmix_obj_run_constructors.exit
  tail call void @pmix_class_initialize(ptr noundef nonnull @pmix_value_array_t_class) #17
  br label %25

25:                                               ; preds = %24, %pmix_obj_run_constructors.exit
  %26 = getelementptr inbounds nuw i8, ptr %0, i64 344
  %27 = getelementptr inbounds nuw i8, ptr %0, i64 384
  store ptr @pmix_value_array_t_class, ptr %27, align 8, !tbaa !13
  %28 = getelementptr inbounds nuw i8, ptr %0, i64 392
  store i32 1, ptr %28, align 8, !tbaa !16
  %29 = getelementptr inbounds nuw i8, ptr %0, i64 400
  tail call void @llvm.memset.p0.i64(ptr noundef nonnull align 8 dereferenceable(64) %29, i8 0, i64 64, i1 false)
  %30 = load ptr, ptr getelementptr inbounds nuw (i8, ptr @pmix_value_array_t_class, i64 40), align 8, !tbaa !17
  %31 = load ptr, ptr %30, align 8, !tbaa !18
  %.not6.i13 = icmp eq ptr %31, null
  br i1 %.not6.i13, label %pmix_obj_run_constructors.exit17, label %.lr.ph.i14

.lr.ph.i14:                                       ; preds = %25, %.lr.ph.i14
  %32 = phi ptr [ %34, %.lr.ph.i14 ], [ %31, %25 ]
  %.07.i15 = phi ptr [ %33, %.lr.ph.i14 ], [ %30, %25 ]
  tail call void %32(ptr noundef nonnull %26) #17
  %33 = getelementptr inbounds nuw i8, ptr %.07.i15, i64 8
  %34 = load ptr, ptr %33, align 8, !tbaa !18
  %.not.i16 = icmp eq ptr %34, null
  br i1 %.not.i16, label %pmix_obj_run_constructors.exit17, label %.lr.ph.i14, !llvm.loop !19

pmix_obj_run_constructors.exit17:                 ; preds = %.lr.ph.i14, %25
  %35 = getelementptr inbounds nuw i8, ptr %0, i64 472
  store i64 4, ptr %35, align 8, !tbaa !21
  %36 = getelementptr inbounds nuw i8, ptr %0, i64 488
  store i64 1, ptr %36, align 8, !tbaa !23
  %37 = getelementptr inbounds nuw i8, ptr %0, i64 480
  store i64 0, ptr %37, align 8, !tbaa !24
  %38 = getelementptr inbounds nuw i8, ptr %0, i64 464
  %39 = load ptr, ptr %38, align 8, !tbaa !25
  %40 = tail call dereferenceable_or_null(4) ptr @realloc(ptr noundef %39, i64 noundef 4) #18
  store ptr %40, ptr %38, align 8, !tbaa !25
  ret void
}